target datalayout = "e-m:e-p270:32:32-p271:32:32-p272:64:64-i64:64-i128:128-f80:128-n8:16:32:64-S128"
target triple = "x86_64-pc-linux-gnu"

%struct.ssl_cipher_st = type { i32, ptr, ptr, i32, i32, i32, i32, i32, i32, i32, i32, i32, i32, i32, i32, i32 }

; Function Attrs: nounwind uwtable
define i32 @ssl3_put_cipher_by_char(ptr noundef %0, ptr noundef %1, ptr noundef %2) #0 {
  %4 = alloca i32, align 4
  %5 = alloca ptr, align 8
  %6 = alloca ptr, align 8
  %7 = alloca ptr, align 8
  store ptr %0, ptr %5, align 8, !tbaa !7
  store ptr %1, ptr %6, align 8, !tbaa !19
  store ptr %2, ptr %7, align 8, !tbaa !218
  %8 = load ptr, ptr %5, align 8, !tbaa !7
  %9 = getelementptr inbounds nuw %struct.ssl_cipher_st, ptr %8, i32 0, i32 3
  %10 = load i32, ptr %9, align 8, !tbaa !9
  %11 = and i32 %10, -16777216
  %12 = icmp ne i32 %11, 50331648
  br i1 %12, label %13, label %15

13:                                               ; preds = %3
  %14 = load ptr, ptr %7, align 8, !tbaa !218
  store i64 0, ptr %14, align 8, !tbaa !16
  store i32 1, ptr %4, align 4
  br label %27

15:                                               ; preds = %3
  %16 = load ptr, ptr %6, align 8, !tbaa !19
  %17 = load ptr, ptr %5, align 8, !tbaa !7
  %18 = getelementptr inbounds nuw %struct.ssl_cipher_st, ptr %17, i32 0, i32 3
  %19 = load i32, ptr %18, align 8, !tbaa !9
  %20 = and i32 %19, 65535
  %21 = zext i32 %20 to i64
  %22 = call i32 @WPACKET_put_bytes__(ptr noundef %16, i64 noundef %21, i64 noundef 2)
  %23 = icmp ne i32 %22, 0
  br i1 %23, label %25, label %24

24:                                               ; preds = %15
  store i32 0, ptr %4, align 4
  br label %27

25:                                               ; preds = %15
  %26 = load ptr, ptr %7, align 8, !tbaa !218
  store i64 2, ptr %26, align 8, !tbaa !16
  store i32 1, ptr %4, align 4
  br label %27

27:                                               ; preds = %25, %24, %13
  %28 = load i32, ptr %4, align 4
  ret i32 %28
}