; Function Attrs: nounwind uwtable
define range(i32 0, 2) i32 @ssl3_put_cipher_by_char(ptr noundef readonly captures(none) %0, ptr noundef %1, ptr noundef writeonly captures(none) %2) local_unnamed_addr #4 {
  %4 = getelementptr inbounds nuw i8, ptr %0, i64 24
  %5 = load i32, ptr %4, align 8, !tbaa !3
  %6 = and i32 %5, -16777216
  %.not = icmp eq i32 %6, 50331648
  br i1 %.not, label %7, label %.sink.split

7:                                                ; preds = %3
  %8 = and i32 %5, 65535
  %9 = zext nneg i32 %8 to i64
  %10 = tail call i32 @WPACKET_put_bytes__(ptr noundef %1, i64 noundef %9, i64 noundef 2) #18
  %.not5 = icmp eq i32 %10, 0
  br i1 %.not5, label %11, label %.sink.split

.sink.split:                                      ; preds = %7, %3
  %.sink = phi i64 [ 0, %3 ], [ 2, %7 ]
  store i64 %.sink, ptr %2, align 8, !tbaa !198
  br label %11

11:                                               ; preds = %.sink.split, %7
  %.0 = phi i32 [ 0, %7 ], [ 1, %.sink.split ]
  ret i32 %.0
}